target datalayout = "e-m:e-p270:32:32-p271:32:32-p272:64:64-i64:64-i128:128-f80:128-n8:16:32:64-S128"
target triple = "x86_64-pc-linux-gnu"

%struct.db_attr_st = type { i32 }
%struct.ca_db_st = type { %struct.db_attr_st, ptr, ptr, %struct.stat }
%struct.stat = type { i64, i64, i64, i32, i32, i32, i32, i64, i64, i64, i64, %struct.timespec, %struct.timespec, %struct.timespec, [3 x i64] }
%struct.timespec = type { i64, i64 }

@bio_err = external global ptr, align 8
@.str.202 = private unnamed_addr constant [21 x i8] c"../openssl/apps/ca.c\00", align 1
@.str.334 = private unnamed_addr constant [12 x i8] c"row serial#\00", align 1
@.str.335 = private unnamed_addr constant [30 x i8] c"Serial %s not present in db.\0A\00", align 1
@.str.336 = private unnamed_addr constant [15 x i8] c"%s=Valid (%c)\0A\00", align 1
@.str.337 = private unnamed_addr constant [17 x i8] c"%s=Revoked (%c)\0A\00", align 1
@.str.338 = private unnamed_addr constant [17 x i8] c"%s=Expired (%c)\0A\00", align 1
@.str.339 = private unnamed_addr constant [19 x i8] c"%s=Suspended (%c)\0A\00", align 1
@.str.340 = private unnamed_addr constant [18 x i8] c"%s=Unknown (%c).\0A\00", align 1

; Function Attrs: nounwind uwtable
define internal i32 @get_certificate_status(ptr noundef %0, ptr noundef %1) #0 {
  %3 = alloca ptr, align 8
  %4 = alloca ptr, align 8
  %5 = alloca [6 x ptr], align 16
  %6 = alloca ptr, align 8
  %7 = alloca i32, align 4
  %8 = alloca i32, align 4
  %9 = alloca i64, align 8
  store ptr %0, ptr %3, align 8, !tbaa !31
  store ptr %1, ptr %4, align 8, !tbaa !21
  call void @llvm.lifetime.start.p0(i64 48, ptr %5) #10
  call void @llvm.lifetime.start.p0(i64 8, ptr %6) #10
  call void @llvm.lifetime.start.p0(i64 4, ptr %7) #10
  store i32 -1, ptr %7, align 4, !tbaa !4
  call void @llvm.lifetime.start.p0(i64 4, ptr %8) #10
  call void @llvm.lifetime.start.p0(i64 8, ptr %9) #10
  %10 = load ptr, ptr %3, align 8, !tbaa !31
  %11 = call i64 @strlen(ptr noundef %10) #11
  store i64 %11, ptr %9, align 8, !tbaa !33
  store i32 0, ptr %8, align 4, !tbaa !4
  br label %12

12:                                               ; preds = %19, %2
  %13 = load i32, ptr %8, align 4, !tbaa !4
  %14 = icmp slt i32 %13, 6
  br i1 %14, label %15, label %22

15:                                               ; preds = %12
  %16 = load i32, ptr %8, align 4, !tbaa !4
  %17 = sext i32 %16 to i64
  %18 = getelementptr inbounds [6 x ptr], ptr %5, i64 0, i64 %17
  store ptr null, ptr %18, align 8, !tbaa !31
  br label %19

19:                                               ; preds = %15
  %20 = load i32, ptr %8, align 4, !tbaa !4
  %21 = add nsw i32 %20, 1
  store i32 %21, ptr %8, align 4, !tbaa !4
  br label %12, !llvm.loop !67

22:                                               ; preds = %12
  %23 = load i64, ptr %9, align 8, !tbaa !33
  %24 = add i64 %23, 2
  %25 = call ptr @app_malloc(i64 noundef %24, ptr noundef @.str.334)
  %26 = getelementptr inbounds [6 x ptr], ptr %5, i64 0, i64 3
  store ptr %25, ptr %26, align 8, !tbaa !31
  %27 = load i64, ptr %9, align 8, !tbaa !33
  %28 = urem i64 %27, 2
  %29 = icmp ne i64 %28, 0
  br i1 %29, label %30, label %44

30:                                               ; preds = %22
  %31 = getelementptr inbounds [6 x ptr], ptr %5, i64 0, i64 3
  %32 = load ptr, ptr %31, align 8, !tbaa !31
  %33 = getelementptr inbounds i8, ptr %32, i64 0
  store i8 48, ptr %33, align 1, !tbaa !43
  %34 = getelementptr inbounds [6 x ptr], ptr %5, i64 0, i64 3
  %35 = load ptr, ptr %34, align 8, !tbaa !31
  %36 = getelementptr inbounds i8, ptr %35, i64 1
  %37 = load ptr, ptr %3, align 8, !tbaa !31
  %38 = load i64, ptr %9, align 8, !tbaa !33
  call void @llvm.memcpy.p0.p0.i64(ptr align 1 %36, ptr align 1 %37, i64 %38, i1 false)
  %39 = getelementptr inbounds [6 x ptr], ptr %5, i64 0, i64 3
  %40 = load ptr, ptr %39, align 8, !tbaa !31
  %41 = load i64, ptr %9, align 8, !tbaa !33
  %42 = add i64 %41, 1
  %43 = getelementptr inbounds nuw i8, ptr %40, i64 %42
  store i8 0, ptr %43, align 1, !tbaa !43
  br label %53

44:                                               ; preds = %22
  %45 = getelementptr inbounds [6 x ptr], ptr %5, i64 0, i64 3
  %46 = load ptr, ptr %45, align 8, !tbaa !31
  %47 = load ptr, ptr %3, align 8, !tbaa !31
  %48 = load i64, ptr %9, align 8, !tbaa !33
  call void @llvm.memcpy.p0.p0.i64(ptr align 1 %46, ptr align 1 %47, i64 %48, i1 false)
  %49 = getelementptr inbounds [6 x ptr], ptr %5, i64 0, i64 3
  %50 = load ptr, ptr %49, align 8, !tbaa !31
  %51 = load i64, ptr %9, align 8, !tbaa !33
  %52 = getelementptr inbounds nuw i8, ptr %50, i64 %51
  store i8 0, ptr %52, align 1, !tbaa !43
  br label %53

53:                                               ; preds = %44, %30
  %54 = getelementptr inbounds [6 x ptr], ptr %5, i64 0, i64 3
  %55 = load ptr, ptr %54, align 8, !tbaa !31
  call void @make_uppercase(ptr noundef %55)
  store i32 1, ptr %7, align 4, !tbaa !4
  %56 = load ptr, ptr %4, align 8, !tbaa !21
  %57 = getelementptr inbounds nuw %struct.ca_db_st, ptr %56, i32 0, i32 1
  %58 = load ptr, ptr %57, align 8, !tbaa !44
  %59 = getelementptr inbounds [6 x ptr], ptr %5, i64 0, i64 0
  %60 = call ptr @TXT_DB_get_by_index(ptr noundef %58, i32 noundef 3, ptr noundef %59)
  store ptr %60, ptr %6, align 8, !tbaa !8
  %61 = load ptr, ptr %6, align 8, !tbaa !8
  %62 = icmp eq ptr %61, null
  br i1 %62, label %63, label %68

63:                                               ; preds = %53
  %64 = load ptr, ptr @bio_err, align 8, !tbaa !19
  %65 = getelementptr inbounds [6 x ptr], ptr %5, i64 0, i64 3
  %66 = load ptr, ptr %65, align 8, !tbaa !31
  %67 = call i32 (ptr, ptr, ...) @BIO_printf(ptr noundef %64, ptr noundef @.str.335, ptr noundef %66)
  store i32 -1, ptr %7, align 4, !tbaa !4
  br label %160

68:                                               ; preds = %53
  %69 = load ptr, ptr %6, align 8, !tbaa !8
  %70 = getelementptr inbounds ptr, ptr %69, i64 0
  %71 = load ptr, ptr %70, align 8, !tbaa !31
  %72 = getelementptr inbounds i8, ptr %71, i64 0
  %73 = load i8, ptr %72, align 1, !tbaa !43
  %74 = sext i8 %73 to i32
  %75 = icmp eq i32 %74, 86
  br i1 %75, label %76, label %87

76:                                               ; preds = %68
  %77 = load ptr, ptr @bio_err, align 8, !tbaa !19
  %78 = getelementptr inbounds [6 x ptr], ptr %5, i64 0, i64 3
  %79 = load ptr, ptr %78, align 8, !tbaa !31
  %80 = load ptr, ptr %6, align 8, !tbaa !8
  %81 = getelementptr inbounds ptr, ptr %80, i64 0
  %82 = load ptr, ptr %81, align 8, !tbaa !31
  %83 = getelementptr inbounds i8, ptr %82, i64 0
  %84 = load i8, ptr %83, align 1, !tbaa !43
  %85 = sext i8 %84 to i32
  %86 = call i32 (ptr, ptr, ...) @BIO_printf(ptr noundef %77, ptr noundef @.str.336, ptr noundef %79, i32 noundef %85)
  br label %160

87:                                               ; preds = %68
  %88 = load ptr, ptr %6, align 8, !tbaa !8
  %89 = getelementptr inbounds ptr, ptr %88, i64 0
  %90 = load ptr, ptr %89, align 8, !tbaa !31
  %91 = getelementptr inbounds i8, ptr %90, i64 0
  %92 = load i8, ptr %91, align 1, !tbaa !43
  %93 = sext i8 %92 to i32
  %94 = icmp eq i32 %93, 82
  br i1 %94, label %95, label %106

95:                                               ; preds = %87
  %96 = load ptr, ptr @bio_err, align 8, !tbaa !19
  %97 = getelementptr inbounds [6 x ptr], ptr %5, i64 0, i64 3
  %98 = load ptr, ptr %97, align 8, !tbaa !31
  %99 = load ptr, ptr %6, align 8, !tbaa !8
  %100 = getelementptr inbounds ptr, ptr %99, i64 0
  %101 = load ptr, ptr %100, align 8, !tbaa !31
  %102 = getelementptr inbounds i8, ptr %101, i64 0
  %103 = load i8, ptr %102, align 1, !tbaa !43
  %104 = sext i8 %103 to i32
  %105 = call i32 (ptr, ptr, ...) @BIO_printf(ptr noundef %96, ptr noundef @.str.337, ptr noundef %98, i32 noundef %104)
  br label %160

106:                                              ; preds = %87
  %107 = load ptr, ptr %6, align 8, !tbaa !8
  %108 = getelementptr inbounds ptr, ptr %107, i64 0
  %109 = load ptr, ptr %108, align 8, !tbaa !31
  %110 = getelementptr inbounds i8, ptr %109, i64 0
  %111 = load i8, ptr %110, align 1, !tbaa !43
  %112 = sext i8 %111 to i32
  %113 = icmp eq i32 %112, 69
  br i1 %113, label %114, label %125

114:                                              ; preds = %106
  %115 = load ptr, ptr @bio_err, align 8, !tbaa !19
  %116 = getelementptr inbounds [6 x ptr], ptr %5, i64 0, i64 3
  %117 = load ptr, ptr %116, align 8, !tbaa !31
  %118 = load ptr, ptr %6, align 8, !tbaa !8
  %119 = getelementptr inbounds ptr, ptr %118, i64 0
  %120 = load ptr, ptr %119, align 8, !tbaa !31
  %121 = getelementptr inbounds i8, ptr %120, i64 0
  %122 = load i8, ptr %121, align 1, !tbaa !43
  %123 = sext i8 %122 to i32
  %124 = call i32 (ptr, ptr, ...) @BIO_printf(ptr noundef %115, ptr noundef @.str.338, ptr noundef %117, i32 noundef %123)
  br label %160

125:                                              ; preds = %106
  %126 = load ptr, ptr %6, align 8, !tbaa !8
  %127 = getelementptr inbounds ptr, ptr %126, i64 0
  %128 = load ptr, ptr %127, align 8, !tbaa !31
  %129 = getelementptr inbounds i8, ptr %128, i64 0
  %130 = load i8, ptr %129, align 1, !tbaa !43
  %131 = sext i8 %130 to i32
  %132 = icmp eq i32 %131, 83
  br i1 %132, label %133, label %144

133:                                              ; preds = %125
  %134 = load ptr, ptr @bio_err, align 8, !tbaa !19
  %135 = getelementptr inbounds [6 x ptr], ptr %5, i64 0, i64 3
  %136 = load ptr, ptr %135, align 8, !tbaa !31
  %137 = load ptr, ptr %6, align 8, !tbaa !8
  %138 = getelementptr inbounds ptr, ptr %137, i64 0
  %139 = load ptr, ptr %138, align 8, !tbaa !31
  %140 = getelementptr inbounds i8, ptr %139, i64 0
  %141 = load i8, ptr %140, align 1, !tbaa !43
  %142 = sext i8 %141 to i32
  %143 = call i32 (ptr, ptr, ...) @BIO_printf(ptr noundef %134, ptr noundef @.str.339, ptr noundef %136, i32 noundef %142)
  br label %160

144:                                              ; preds = %125
  %145 = load ptr, ptr @bio_err, align 8, !tbaa !19
  %146 = getelementptr inbounds [6 x ptr], ptr %5, i64 0, i64 3
  %147 = load ptr, ptr %146, align 8, !tbaa !31
  %148 = load ptr, ptr %6, align 8, !tbaa !8
  %149 = getelementptr inbounds ptr, ptr %148, i64 0
  %150 = load ptr, ptr %149, align 8, !tbaa !31
  %151 = getelementptr inbounds i8, ptr %150, i64 0
  %152 = load i8, ptr %151, align 1, !tbaa !43
  %153 = sext i8 %152 to i32
  %154 = call i32 (ptr, ptr, ...) @BIO_printf(ptr noundef %145, ptr noundef @.str.340, ptr noundef %147, i32 noundef %153)
  store i32 -1, ptr %7, align 4, !tbaa !4
  br label %155

155:                                              ; preds = %144
  br label %156

156:                                              ; preds = %155
  br label %157

157:                                              ; preds = %156
  br label %158

158:                                              ; preds = %157
  br label %159

159:                                              ; preds = %158
  br label %160

160:                                              ; preds = %159, %133, %114, %95, %76, %63
  store i32 0, ptr %8, align 4, !tbaa !4
  br label %161

161:                                              ; preds = %169, %160
  %162 = load i32, ptr %8, align 4, !tbaa !4
  %163 = icmp slt i32 %162, 6
  br i1 %163, label %164, label %172

164:                                              ; preds = %161
  %165 = load i32, ptr %8, align 4, !tbaa !4
  %166 = sext i32 %165 to i64
  %167 = getelementptr inbounds [6 x ptr], ptr %5, i64 0, i64 %166
  %168 = load ptr, ptr %167, align 8, !tbaa !31
  call void @CRYPTO_free(ptr noundef %168, ptr noundef @.str.202, i32 noundef 2263)
  br label %169

169:                                              ; preds = %164
  %170 = load i32, ptr %8, align 4, !tbaa !4
  %171 = add nsw i32 %170, 1
  store i32 %171, ptr %8, align 4, !tbaa !4
  br label %161, !llvm.loop !68

172:                                              ; preds = %161
  %173 = load i32, ptr %7, align 4, !tbaa !4
  call void @llvm.lifetime.end.p0(i64 8, ptr %9) #10
  call void @llvm.lifetime.end.p0(i64 4, ptr %8) #10
  call void @llvm.lifetime.end.p0(i64 4, ptr %7) #10
  call void @llvm.lifetime.end.p0(i64 8, ptr %6) #10
  call void @llvm.lifetime.end.p0(i64 48, ptr %5) #10
  ret i32 %173
}