; Function Attrs: nounwind uwtable
define internal fastcc range(i32 -1, 2) i32 @get_certificate_status(ptr noundef nonnull readonly captures(none) %0, ptr noundef nonnull readonly captures(none) %1) unnamed_addr #0 {
  %3 = alloca [6 x ptr], align 16
  call void @llvm.lifetime.start.p0(i64 48, ptr nonnull %3) #12
  %4 = tail call i64 @strlen(ptr noundef nonnull dereferenceable(1) %0) #13
  call void @llvm.memset.p0.i64(ptr noundef nonnull align 16 dereferenceable(48) %3, i8 0, i64 48, i1 false), !tbaa !9
  %5 = add i64 %4, 2
  %6 = tail call ptr @app_malloc(i64 noundef %5, ptr noundef nonnull @.str.334) #12
  %7 = getelementptr inbounds nuw i8, ptr %3, i64 24
  store ptr %6, ptr %7, align 8, !tbaa !9
  %8 = and i64 %4, 1
  %.not = icmp eq i64 %8, 0
  br i1 %.not, label %13, label %9

9:                                                ; preds = %2
  store i8 48, ptr %6, align 1, !tbaa !23
  %10 = getelementptr inbounds nuw i8, ptr %6, i64 1
  tail call void @llvm.memcpy.p0.p0.i64(ptr nonnull align 1 %10, ptr nonnull align 1 %0, i64 %4, i1 false)
  %11 = getelementptr i8, ptr %6, i64 %4
  %12 = getelementptr i8, ptr %11, i64 1
  store i8 0, ptr %12, align 1, !tbaa !23
  br label %15

13:                                               ; preds = %2
  tail call void @llvm.memcpy.p0.p0.i64(ptr align 1 %6, ptr nonnull align 1 %0, i64 %4, i1 false)
  %14 = getelementptr inbounds nuw i8, ptr %6, i64 %4
  store i8 0, ptr %14, align 1, !tbaa !23
  br label %15

15:                                               ; preds = %13, %9
  tail call void @make_uppercase(ptr noundef nonnull %6) #12
  %16 = getelementptr inbounds nuw i8, ptr %1, i64 8
  %17 = load ptr, ptr %16, align 8, !tbaa !24
  %18 = call ptr @TXT_DB_get_by_index(ptr noundef %17, i32 noundef 3, ptr noundef nonnull %3) #12
  %19 = icmp eq ptr %18, null
  br i1 %19, label %20, label %24

20:                                               ; preds = %15
  %21 = load ptr, ptr @bio_err, align 8, !tbaa !19
  %22 = load ptr, ptr %7, align 8, !tbaa !9
  %23 = call i32 (ptr, ptr, ...) @BIO_printf(ptr noundef %21, ptr noundef nonnull @.str.335, ptr noundef %22) #12
  br label %48

24:                                               ; preds = %15
  %25 = load ptr, ptr %18, align 8, !tbaa !9
  %26 = load i8, ptr %25, align 1, !tbaa !23
  switch i8 %26, label %43 [
    i8 86, label %27
    i8 82, label %31
    i8 69, label %35
    i8 83, label %39
  ]

27:                                               ; preds = %24
  %28 = load ptr, ptr @bio_err, align 8, !tbaa !19
  %29 = load ptr, ptr %7, align 8, !tbaa !9
  %30 = call i32 (ptr, ptr, ...) @BIO_printf(ptr noundef %28, ptr noundef nonnull @.str.336, ptr noundef %29, i32 noundef 86) #12
  br label %48

31:                                               ; preds = %24
  %32 = load ptr, ptr @bio_err, align 8, !tbaa !19
  %33 = load ptr, ptr %7, align 8, !tbaa !9
  %34 = call i32 (ptr, ptr, ...) @BIO_printf(ptr noundef %32, ptr noundef nonnull @.str.337, ptr noundef %33, i32 noundef 82) #12
  br label %48

35:                                               ; preds = %24
  %36 = load ptr, ptr @bio_err, align 8, !tbaa !19
  %37 = load ptr, ptr %7, align 8, !tbaa !9
  %38 = call i32 (ptr, ptr, ...) @BIO_printf(ptr noundef %36, ptr noundef nonnull @.str.338, ptr noundef %37, i32 noundef 69) #12
  br label %48

39:                                               ; preds = %24
  %40 = load ptr, ptr @bio_err, align 8, !tbaa !19
  %41 = load ptr, ptr %7, align 8, !tbaa !9
  %42 = call i32 (ptr, ptr, ...) @BIO_printf(ptr noundef %40, ptr noundef nonnull @.str.339, ptr noundef %41, i32 noundef 83) #12
  br label %48

43:                                               ; preds = %24
  %44 = sext i8 %26 to i32
  %45 = load ptr, ptr @bio_err, align 8, !tbaa !19
  %46 = load ptr, ptr %7, align 8, !tbaa !9
  %47 = call i32 (ptr, ptr, ...) @BIO_printf(ptr noundef %45, ptr noundef nonnull @.str.340, ptr noundef %46, i32 noundef %44) #12
  br label %48

48:                                               ; preds = %43, %39, %35, %31, %27, %20
  %.0 = phi i32 [ -1, %20 ], [ 1, %27 ], [ 1, %31 ], [ 1, %35 ], [ 1, %39 ], [ -1, %43 ]
  br label %49

49:                                               ; preds = %48, %49
  %indvars.iv = phi i64 [ 0, %48 ], [ %indvars.iv.next, %49 ]
  %50 = getelementptr inbounds nuw [6 x ptr], ptr %3, i64 0, i64 %indvars.iv
  %51 = load ptr, ptr %50, align 8, !tbaa !9
  call void @CRYPTO_free(ptr noundef %51, ptr noundef nonnull @.str.202, i32 noundef 2263) #12
  %indvars.iv.next = add nuw nsw i64 %indvars.iv, 1
  %exitcond.not = icmp eq i64 %indvars.iv.next, 6
  br i1 %exitcond.not, label %52, label %49, !llvm.loop !48

52:                                               ; preds = %49
  call void @llvm.lifetime.end.p0(i64 48, ptr nonnull %3) #12
  ret i32 %.0
}